target datalayout = "e-m:e-p270:32:32-p271:32:32-p272:64:64-i64:64-i128:128-f80:128-n8:16:32:64-S128"
target triple = "x86_64-pc-linux-gnu"

%struct.ShortStringOptions = type { i8, ptr, i32 }
%"class.icu_77::MaybeStackArray" = type <{ ptr, i32, i8, [40 x i8], [3 x i8] }>
%struct.UParseError = type { i32, i32, [16 x i16], [16 x i16] }
%struct.CollatorSpec = type { [6 x %"class.icu_77::CharString"], %"class.icu_77::CharString", [8 x i32], i32, [32 x i16], i32, i8, [7 x i8], [17 x %"class.icu_77::CharString"] }
%"class.icu_77::CharString" = type { %"class.icu_77::MaybeStackArray", i32, [4 x i8] }

@_ZN6icu_7715MaybeStackArrayIcLi40EEC1Ev = weak_odr unnamed_addr alias void (ptr), ptr @_ZN6icu_7715MaybeStackArrayIcLi40EEC2Ev
@_ZN6icu_7715MaybeStackArrayIcLi40EED1Ev = weak_odr unnamed_addr alias void (ptr), ptr @_ZN6icu_7715MaybeStackArrayIcLi40EED2Ev

; Function Attrs: mustprogress nounwind uwtable
define weak_odr noundef nonnull align 1 dereferenceable(1) ptr @_ZN6icu_7715MaybeStackArrayIcLi40EEixEl(ptr noundef nonnull align 8 dereferenceable(53) %0, i64 noundef %1) #0 comdat align 2 {
  %3 = alloca ptr, align 8
  %4 = alloca i64, align 8
  store ptr %0, ptr %3, align 8, !tbaa !3
  store i64 %1, ptr %4, align 8, !tbaa !18
  %5 = load ptr, ptr %3, align 8
  %6 = getelementptr inbounds nuw %"class.icu_77::MaybeStackArray", ptr %5, i32 0, i32 0
  %7 = load ptr, ptr %6, align 8, !tbaa !8
  %8 = load i64, ptr %4, align 8, !tbaa !18
  %9 = getelementptr inbounds i8, ptr %7, i64 %8
  ret ptr %9
}

; Function Attrs: mustprogress nounwind uwtable
define linkonce_odr void @_ZN6icu_7710CharStringD2Ev(ptr noundef nonnull align 8 dereferenceable(60) %0) unnamed_addr #0 comdat align 2 {
  %2 = alloca ptr, align 8
  store ptr %0, ptr %2, align 8, !tbaa !47
  %3 = load ptr, ptr %2, align 8
  %4 = getelementptr inbounds nuw %"class.icu_77::CharString", ptr %3, i32 0, i32 0
  call void @_ZN6icu_7715MaybeStackArrayIcLi40EED1Ev(ptr noundef nonnull align 8 dereferenceable(53) %4) #12
  ret void
}

; Function Attrs: mustprogress uwtable
define linkonce_odr void @_ZN6icu_7710CharStringC2EPKciR10UErrorCode(ptr noundef nonnull align 8 dereferenceable(60) %0, ptr noundef %1, i32 noundef %2, ptr noundef nonnull align 4 dereferenceable(4) %3) unnamed_addr #1 comdat align 2 personality ptr @__gxx_personality_v0 {
  %5 = alloca ptr, align 8
  %6 = alloca ptr, align 8
  %7 = alloca i32, align 4
  %8 = alloca ptr, align 8
  %9 = alloca ptr, align 8
  %10 = alloca i32, align 4
  store ptr %0, ptr %5, align 8, !tbaa !47
  store ptr %1, ptr %6, align 8, !tbaa !17
  store i32 %2, ptr %7, align 4, !tbaa !14
  store ptr %3, ptr %8, align 8, !tbaa !22
  %11 = load ptr, ptr %5, align 8
  %12 = getelementptr inbounds nuw %"class.icu_77::CharString", ptr %11, i32 0, i32 0
  call void @_ZN6icu_7715MaybeStackArrayIcLi40EEC1Ev(ptr noundef nonnull align 8 dereferenceable(53) %12)
  %13 = getelementptr inbounds nuw %"class.icu_77::CharString", ptr %11, i32 0, i32 1
  store i32 0, ptr %13, align 8, !tbaa !49
  %14 = getelementptr inbounds nuw %"class.icu_77::CharString", ptr %11, i32 0, i32 0
  %15 = call noundef nonnull align 1 dereferenceable(1) ptr @_ZN6icu_7715MaybeStackArrayIcLi40EEixEl(ptr noundef nonnull align 8 dereferenceable(53) %14, i64 noundef 0)
  store i8 0, ptr %15, align 1, !tbaa !23
  %16 = load ptr, ptr %6, align 8, !tbaa !17
  %17 = load i32, ptr %7, align 4, !tbaa !14
  %18 = load ptr, ptr %8, align 8, !tbaa !22
  %19 = invoke noundef nonnull align 8 dereferenceable(60) ptr @_ZN6icu_7710CharString6appendEPKciR10UErrorCode(ptr noundef nonnull align 8 dereferenceable(60) %11, ptr noundef %16, i32 noundef %17, ptr noundef nonnull align 4 dereferenceable(4) %18)
          to label %20 unwind label %21

20:                                               ; preds = %4
  ret void

21:                                               ; preds = %4
  %22 = landingpad { ptr, i32 }
          cleanup
  %23 = extractvalue { ptr, i32 } %22, 0
  store ptr %23, ptr %9, align 8
  %24 = extractvalue { ptr, i32 } %22, 1
  store i32 %24, ptr %10, align 4
  call void @_ZN6icu_7715MaybeStackArrayIcLi40EED1Ev(ptr noundef nonnull align 8 dereferenceable(53) %12) #12
  br label %25

25:                                               ; preds = %21
  %26 = load ptr, ptr %9, align 8
  %27 = load i32, ptr %10, align 4
  %28 = insertvalue { ptr, i32 } poison, ptr %26, 0
  %29 = insertvalue { ptr, i32 } %28, i32 %27, 1
  resume { ptr, i32 } %29
}

; Function Attrs: inlinehint mustprogress nounwind uwtable
define internal noundef signext i8 @_ZL9U_FAILURE10UErrorCode(i32 noundef %0) #2 {
  %2 = alloca i32, align 4
  store i32 %0, ptr %2, align 4, !tbaa !15
  %3 = load i32, ptr %2, align 4, !tbaa !15
  %4 = icmp sgt i32 %3, 0
  %5 = zext i1 %4 to i8
  ret i8 %5
}

; Function Attrs: mustprogress uwtable
define internal noundef ptr @_ZL19ucol_sit_readOptionPKcP12CollatorSpecP10UErrorCode(ptr noundef %0, ptr noundef %1, ptr noundef %2) #1 personality ptr @__gxx_personality_v0 {
  %4 = alloca ptr, align 8
  %5 = alloca ptr, align 8
  %6 = alloca ptr, align 8
  %7 = alloca ptr, align 8
  %8 = alloca i32, align 4
  %9 = alloca ptr, align 8
  %10 = alloca %"class.icu_77::CharString", align 8
  %11 = alloca ptr, align 8
  %12 = alloca i32, align 4
  %13 = alloca i32, align 4
  store ptr %0, ptr %5, align 8, !tbaa !17
  store ptr %1, ptr %6, align 8, !tbaa !35
  store ptr %2, ptr %7, align 8, !tbaa !22
  call void @llvm.lifetime.start.p0(i64 4, ptr %8) #12
  store i32 0, ptr %8, align 4, !tbaa !14
  store i32 0, ptr %8, align 4, !tbaa !14
  br label %14

14:                                               ; preds = %66, %3
  %15 = load i32, ptr %8, align 4, !tbaa !14
  %16 = icmp slt i32 %15, 17
  br i1 %16, label %17, label %69

17:                                               ; preds = %14
  %18 = load ptr, ptr %5, align 8, !tbaa !17
  %19 = load i8, ptr %18, align 1, !tbaa !23
  %20 = sext i8 %19 to i32
  %21 = load i32, ptr %8, align 4, !tbaa !14
  %22 = sext i32 %21 to i64
  %23 = getelementptr inbounds [17 x %struct.ShortStringOptions], ptr @_ZL7options, i64 0, i64 %22
  %24 = getelementptr inbounds nuw %struct.ShortStringOptions, ptr %23, i32 0, i32 0
  %25 = load i8, ptr %24, align 8, !tbaa !69
  %26 = sext i8 %25 to i32
  %27 = icmp eq i32 %20, %26
  br i1 %27, label %28, label %65

28:                                               ; preds = %17
  call void @llvm.lifetime.start.p0(i64 8, ptr %9) #12
  %29 = load i32, ptr %8, align 4, !tbaa !14
  %30 = sext i32 %29 to i64
  %31 = getelementptr inbounds [17 x %struct.ShortStringOptions], ptr @_ZL7options, i64 0, i64 %30
  %32 = getelementptr inbounds nuw %struct.ShortStringOptions, ptr %31, i32 0, i32 1
  %33 = load ptr, ptr %32, align 8, !tbaa !71
  %34 = load ptr, ptr %6, align 8, !tbaa !35
  %35 = load i32, ptr %8, align 4, !tbaa !14
  %36 = sext i32 %35 to i64
  %37 = getelementptr inbounds [17 x %struct.ShortStringOptions], ptr @_ZL7options, i64 0, i64 %36
  %38 = getelementptr inbounds nuw %struct.ShortStringOptions, ptr %37, i32 0, i32 2
  %39 = load i32, ptr %38, align 8, !tbaa !72
  %40 = load ptr, ptr %5, align 8, !tbaa !17
  %41 = getelementptr inbounds i8, ptr %40, i64 1
  %42 = load ptr, ptr %7, align 8, !tbaa !22
  %43 = call noundef ptr %33(ptr noundef %34, i32 noundef %39, ptr noundef %41, ptr noundef %42)
  store ptr %43, ptr %9, align 8, !tbaa !17
  %44 = load ptr, ptr %6, align 8, !tbaa !35
  %45 = getelementptr inbounds nuw %struct.CollatorSpec, ptr %44, i32 0, i32 8
  %46 = load i32, ptr %8, align 4, !tbaa !14
  %47 = sext i32 %46 to i64
  %48 = getelementptr inbounds [17 x %"class.icu_77::CharString"], ptr %45, i64 0, i64 %47
  call void @llvm.lifetime.start.p0(i64 64, ptr %10) #12
  %49 = load ptr, ptr %5, align 8, !tbaa !17
  %50 = load ptr, ptr %9, align 8, !tbaa !17
  %51 = load ptr, ptr %5, align 8, !tbaa !17
  %52 = ptrtoint ptr %50 to i64
  %53 = ptrtoint ptr %51 to i64
  %54 = sub i64 %52, %53
  %55 = trunc i64 %54 to i32
  %56 = load ptr, ptr %7, align 8, !tbaa !22
  call void @_ZN6icu_7710CharStringC2EPKciR10UErrorCode(ptr noundef nonnull align 8 dereferenceable(60) %10, ptr noundef %49, i32 noundef %55, ptr noundef nonnull align 4 dereferenceable(4) %56)
  %57 = load ptr, ptr %7, align 8, !tbaa !22
  %58 = invoke noundef nonnull align 8 dereferenceable(60) ptr @_ZN6icu_7710CharString8copyFromERKS0_R10UErrorCode(ptr noundef nonnull align 8 dereferenceable(60) %48, ptr noundef nonnull align 8 dereferenceable(60) %10, ptr noundef nonnull align 4 dereferenceable(4) %57)
          to label %59 unwind label %61

59:                                               ; preds = %28
  call void @_ZN6icu_7710CharStringD2Ev(ptr noundef nonnull align 8 dereferenceable(60) %10) #12
  call void @llvm.lifetime.end.p0(i64 64, ptr %10) #12
  %60 = load ptr, ptr %9, align 8, !tbaa !17
  store ptr %60, ptr %4, align 8
  store i32 1, ptr %13, align 4
  call void @llvm.lifetime.end.p0(i64 8, ptr %9) #12
  br label %72

61:                                               ; preds = %28
  %62 = landingpad { ptr, i32 }
          cleanup
  %63 = extractvalue { ptr, i32 } %62, 0
  store ptr %63, ptr %11, align 8
  %64 = extractvalue { ptr, i32 } %62, 1
  store i32 %64, ptr %12, align 4
  call void @_ZN6icu_7710CharStringD2Ev(ptr noundef nonnull align 8 dereferenceable(60) %10) #12
  call void @llvm.lifetime.end.p0(i64 64, ptr %10) #12
  call void @llvm.lifetime.end.p0(i64 8, ptr %9) #12
  call void @llvm.lifetime.end.p0(i64 4, ptr %8) #12
  br label %74

65:                                               ; preds = %17
  br label %66

66:                                               ; preds = %65
  %67 = load i32, ptr %8, align 4, !tbaa !14
  %68 = add nsw i32 %67, 1
  store i32 %68, ptr %8, align 4, !tbaa !14
  br label %14, !llvm.loop !73

69:                                               ; preds = %14
  %70 = load ptr, ptr %7, align 8, !tbaa !22
  store i32 1, ptr %70, align 4, !tbaa !15
  %71 = load ptr, ptr %5, align 8, !tbaa !17
  store ptr %71, ptr %4, align 8
  store i32 1, ptr %13, align 4
  br label %72

72:                                               ; preds = %69, %59
  call void @llvm.lifetime.end.p0(i64 4, ptr %8) #12
  %73 = load ptr, ptr %4, align 8
  ret ptr %73

74:                                               ; preds = %61
  %75 = load ptr, ptr %11, align 8
  %76 = load i32, ptr %12, align 4
  %77 = insertvalue { ptr, i32 } poison, ptr %75, 0
  %78 = insertvalue { ptr, i32 } %77, i32 %76, 1
  resume { ptr, i32 } %78
}

; Function Attrs: inlinehint mustprogress nounwind uwtable
define internal noundef signext i8 @_ZL9U_SUCCESS10UErrorCode(i32 noundef %0) #2 {
  %2 = alloca i32, align 4
  store i32 %0, ptr %2, align 4, !tbaa !15
  %3 = load i32, ptr %2, align 4, !tbaa !15
  %4 = icmp sle i32 %3, 0
  %5 = zext i1 %4 to i8
  ret i8 %5
}

; Function Attrs: mustprogress uwtable
define internal noundef ptr @_ZL18ucol_sit_readSpecsP12CollatorSpecPKcP11UParseErrorP10UErrorCode(ptr noundef %0, ptr noundef %1, ptr noundef %2, ptr noundef %3) #1 {
  %5 = alloca ptr, align 8
  %6 = alloca ptr, align 8
  %7 = alloca ptr, align 8
  %8 = alloca ptr, align 8
  %9 = alloca ptr, align 8
  store ptr %0, ptr %5, align 8, !tbaa !35
  store ptr %1, ptr %6, align 8, !tbaa !17
  store ptr %2, ptr %7, align 8, !tbaa !24
  store ptr %3, ptr %8, align 8, !tbaa !22
  call void @llvm.lifetime.start.p0(i64 8, ptr %9) #12
  %10 = load ptr, ptr %6, align 8, !tbaa !17
  store ptr %10, ptr %9, align 8, !tbaa !17
  br label %11

11:                                               ; preds = %41, %4
  %12 = load ptr, ptr %8, align 8, !tbaa !22
  %13 = load i32, ptr %12, align 4, !tbaa !15
  %14 = call noundef signext i8 @_ZL9U_SUCCESS10UErrorCode(i32 noundef %13)
  %15 = icmp ne i8 %14, 0
  br i1 %15, label %16, label %20

16:                                               ; preds = %11
  %17 = load ptr, ptr %6, align 8, !tbaa !17
  %18 = load i8, ptr %17, align 1, !tbaa !23
  %19 = icmp ne i8 %18, 0
  br label %20

20:                                               ; preds = %16, %11
  %21 = phi i1 [ false, %11 ], [ %19, %16 ]
  br i1 %21, label %22, label %42

22:                                               ; preds = %20
  %23 = load ptr, ptr %6, align 8, !tbaa !17
  %24 = load ptr, ptr %5, align 8, !tbaa !35
  %25 = load ptr, ptr %8, align 8, !tbaa !22
  %26 = call noundef ptr @_ZL19ucol_sit_readOptionPKcP12CollatorSpecP10UErrorCode(ptr noundef %23, ptr noundef %24, ptr noundef %25)
  store ptr %26, ptr %6, align 8, !tbaa !17
  br label %27

27:                                               ; preds = %38, %22
  %28 = load ptr, ptr %6, align 8, !tbaa !17
  %29 = load i8, ptr %28, align 1, !tbaa !23
  %30 = icmp ne i8 %29, 0
  br i1 %30, label %31, label %36

31:                                               ; preds = %27
  %32 = load ptr, ptr %6, align 8, !tbaa !17
  %33 = load i8, ptr %32, align 1, !tbaa !23
  %34 = sext i8 %33 to i32
  %35 = icmp eq i32 %34, 95
  br label %36

36:                                               ; preds = %31, %27
  %37 = phi i1 [ false, %27 ], [ %35, %31 ]
  br i1 %37, label %38, label %41

38:                                               ; preds = %36
  %39 = load ptr, ptr %6, align 8, !tbaa !17
  %40 = getelementptr inbounds nuw i8, ptr %39, i32 1
  store ptr %40, ptr %6, align 8, !tbaa !17
  br label %27, !llvm.loop !45

41:                                               ; preds = %36
  br label %11, !llvm.loop !46

42:                                               ; preds = %20
  %43 = load ptr, ptr %8, align 8, !tbaa !22
  %44 = load i32, ptr %43, align 4, !tbaa !15
  %45 = call noundef signext i8 @_ZL9U_FAILURE10UErrorCode(i32 noundef %44)
  %46 = icmp ne i8 %45, 0
  br i1 %46, label %47, label %56

47:                                               ; preds = %42
  %48 = load ptr, ptr %6, align 8, !tbaa !17
  %49 = load ptr, ptr %9, align 8, !tbaa !17
  %50 = ptrtoint ptr %48 to i64
  %51 = ptrtoint ptr %49 to i64
  %52 = sub i64 %50, %51
  %53 = trunc i64 %52 to i32
  %54 = load ptr, ptr %7, align 8, !tbaa !24
  %55 = getelementptr inbounds nuw %struct.UParseError, ptr %54, i32 0, i32 1
  store i32 %53, ptr %55, align 4, !tbaa !28
  br label %56

56:                                               ; preds = %47, %42
  %57 = load ptr, ptr %6, align 8, !tbaa !17
  call void @llvm.lifetime.end.p0(i64 8, ptr %9) #12
  ret ptr %57
}