; Function Attrs: mustprogress uwtable
define internal fastcc noundef ptr @_ZL18ucol_sit_readSpecsP12CollatorSpecPKcP11UParseErrorP10UErrorCode(ptr noundef nonnull %0, ptr noundef %1, ptr noundef writeonly captures(none) %2, ptr noundef %3) unnamed_addr #1 personality ptr @__gxx_personality_v0 {
  %5 = alloca %"class.icu_77::CharString", align 8
  %6 = load i32, ptr %3, align 4, !tbaa !13
  %7 = icmp sgt i32 %6, 0
  br i1 %7, label %.critedge, label %.lr.ph

.lr.ph:                                           ; preds = %4
  %8 = getelementptr inbounds nuw i8, ptr %5, i64 56
  %9 = getelementptr inbounds nuw i8, ptr %0, i64 560
  %.pre = load i8, ptr %1, align 1, !tbaa !22
  br label %12

.critedge2.loopexit:                              ; preds = %_ZL19ucol_sit_readOptionPKcP12CollatorSpecP10UErrorCode.exit
  %10 = load i32, ptr %3, align 4, !tbaa !13
  %11 = icmp sgt i32 %10, 0
  br i1 %11, label %.critedge, label %12, !llvm.loop !27

12:                                               ; preds = %.lr.ph, %.critedge2.loopexit
  %13 = phi i8 [ %.pre, %.lr.ph ], [ %39, %.critedge2.loopexit ]
  %.027 = phi ptr [ %1, %.lr.ph ], [ %.1, %.critedge2.loopexit ]
  %.not17 = icmp eq i8 %13, 0
  br i1 %.not17, label %.critedge.thread37, label %.preheader

14:                                               ; preds = %.preheader
  %indvars.iv.next.i = add nuw nsw i64 %indvars.iv.i, 1
  %exitcond.not.i = icmp eq i64 %indvars.iv.next.i, 17
  br i1 %exitcond.not.i, label %38, label %.preheader, !llvm.loop !29

.preheader:                                       ; preds = %12, %14
  %indvars.iv.i = phi i64 [ %indvars.iv.next.i, %14 ], [ 0, %12 ]
  %15 = getelementptr inbounds nuw [17 x %struct.ShortStringOptions], ptr @_ZL7options, i64 0, i64 %indvars.iv.i
  %16 = load i8, ptr %15, align 8, !tbaa !30
  %17 = icmp eq i8 %13, %16
  br i1 %17, label %18, label %14

18:                                               ; preds = %.preheader
  %19 = getelementptr inbounds nuw i8, ptr %15, i64 8
  %20 = load ptr, ptr %19, align 8, !tbaa !32
  %21 = getelementptr inbounds nuw i8, ptr %15, i64 16
  %22 = load i32, ptr %21, align 8, !tbaa !33
  %23 = getelementptr inbounds nuw i8, ptr %.027, i64 1
  %24 = call noundef ptr %20(ptr noundef nonnull %0, i32 noundef %22, ptr noundef nonnull %23, ptr noundef nonnull %3)
  call void @llvm.lifetime.start.p0(i64 64, ptr nonnull %5) #14
  %25 = ptrtoint ptr %24 to i64
  %26 = ptrtoint ptr %.027 to i64
  %27 = sub i64 %25, %26
  %28 = trunc i64 %27 to i32
  call void @_ZN6icu_7715MaybeStackArrayIcLi40EEC1Ev(ptr noundef nonnull align 8 dereferenceable(60) %5)
  store i32 0, ptr %8, align 8, !tbaa !20
  %29 = load ptr, ptr %5, align 8, !tbaa !3
  store i8 0, ptr %29, align 1, !tbaa !22
  %30 = invoke noundef nonnull align 8 dereferenceable(60) ptr @_ZN6icu_7710CharString6appendEPKciR10UErrorCode(ptr noundef nonnull align 8 dereferenceable(60) %5, ptr noundef nonnull %.027, i32 noundef %28, ptr noundef nonnull align 4 dereferenceable(4) %3)
          to label %_ZN6icu_7710CharStringC2EPKciR10UErrorCode.exit.i unwind label %31

common.resume.i:                                  ; preds = %36, %31
  %common.resume.op.i = phi { ptr, i32 } [ %32, %31 ], [ %37, %36 ]
  resume { ptr, i32 } %common.resume.op.i

31:                                               ; preds = %18
  %32 = landingpad { ptr, i32 }
          cleanup
  call void @_ZN6icu_7715MaybeStackArrayIcLi40EED1Ev(ptr noundef nonnull align 8 dereferenceable(60) %5) #14
  br label %common.resume.i

_ZN6icu_7710CharStringC2EPKciR10UErrorCode.exit.i: ; preds = %18
  %33 = getelementptr inbounds nuw [17 x %"class.icu_77::CharString"], ptr %9, i64 0, i64 %indvars.iv.i
  %34 = invoke noundef nonnull align 8 dereferenceable(60) ptr @_ZN6icu_7710CharString8copyFromERKS0_R10UErrorCode(ptr noundef nonnull align 8 dereferenceable(60) %33, ptr noundef nonnull align 8 dereferenceable(60) %5, ptr noundef nonnull align 4 dereferenceable(4) %3)
          to label %35 unwind label %36

35:                                               ; preds = %_ZN6icu_7710CharStringC2EPKciR10UErrorCode.exit.i
  call void @_ZN6icu_7715MaybeStackArrayIcLi40EED1Ev(ptr noundef nonnull align 8 dereferenceable(60) %5) #14
  call void @llvm.lifetime.end.p0(i64 64, ptr nonnull %5) #14
  br label %_ZL19ucol_sit_readOptionPKcP12CollatorSpecP10UErrorCode.exit.preheader

36:                                               ; preds = %_ZN6icu_7710CharStringC2EPKciR10UErrorCode.exit.i
  %37 = landingpad { ptr, i32 }
          cleanup
  call void @_ZN6icu_7715MaybeStackArrayIcLi40EED1Ev(ptr noundef nonnull align 8 dereferenceable(60) %5) #14
  call void @llvm.lifetime.end.p0(i64 64, ptr nonnull %5) #14
  br label %common.resume.i

38:                                               ; preds = %14
  store i32 1, ptr %3, align 4, !tbaa !13
  br label %_ZL19ucol_sit_readOptionPKcP12CollatorSpecP10UErrorCode.exit.preheader

_ZL19ucol_sit_readOptionPKcP12CollatorSpecP10UErrorCode.exit.preheader: ; preds = %35, %38
  %.1.ph = phi ptr [ %.027, %38 ], [ %24, %35 ]
  br label %_ZL19ucol_sit_readOptionPKcP12CollatorSpecP10UErrorCode.exit

_ZL19ucol_sit_readOptionPKcP12CollatorSpecP10UErrorCode.exit: ; preds = %_ZL19ucol_sit_readOptionPKcP12CollatorSpecP10UErrorCode.exit.preheader, %_ZL19ucol_sit_readOptionPKcP12CollatorSpecP10UErrorCode.exit
  %.1 = phi ptr [ %40, %_ZL19ucol_sit_readOptionPKcP12CollatorSpecP10UErrorCode.exit ], [ %.1.ph, %_ZL19ucol_sit_readOptionPKcP12CollatorSpecP10UErrorCode.exit.preheader ]
  %39 = load i8, ptr %.1, align 1, !tbaa !22
  %cond = icmp eq i8 %39, 95
  %40 = getelementptr inbounds nuw i8, ptr %.1, i64 1
  br i1 %cond, label %_ZL19ucol_sit_readOptionPKcP12CollatorSpecP10UErrorCode.exit, label %.critedge2.loopexit, !llvm.loop !34

.critedge:                                        ; preds = %.critedge2.loopexit, %4
  %.0.lcssa35 = phi ptr [ %1, %4 ], [ %.1, %.critedge2.loopexit ]
  %41 = ptrtoint ptr %.0.lcssa35 to i64
  %42 = ptrtoint ptr %1 to i64
  %43 = sub i64 %41, %42
  %44 = trunc i64 %43 to i32
  %45 = getelementptr inbounds nuw i8, ptr %2, i64 4
  store i32 %44, ptr %45, align 4, !tbaa !17
  br label %.critedge.thread37

.critedge.thread37:                               ; preds = %12, %.critedge
  %.0.lcssa36 = phi ptr [ %.0.lcssa35, %.critedge ], [ %.027, %12 ]
  ret ptr %.0.lcssa36
}